; Function Attrs: nounwind uwtable
define internal void @ff_tx_rdft_r2r_int32_c(ptr noundef readonly captures(none) %0, ptr noundef %1, ptr noundef %2, i64 %3) #3 {
  %5 = load i32, ptr %0, align 8, !tbaa !16
  %6 = ashr i32 %5, 1
  %7 = ashr i32 %5, 2
  %8 = add nsw i32 %5, 3
  %9 = ashr i32 %8, 2
  %10 = getelementptr inbounds nuw i8, ptr %0, i64 16
  %11 = load ptr, ptr %10, align 8, !tbaa !26
  %12 = getelementptr inbounds nuw i8, ptr %11, i64 32
  %13 = sext i32 %9 to i64
  %14 = getelementptr inbounds i32, ptr %12, i64 %13
  %15 = getelementptr inbounds nuw i8, ptr %0, i64 40
  %16 = load ptr, ptr %15, align 8, !tbaa !4
  %17 = getelementptr inbounds nuw i8, ptr %0, i64 32
  %18 = load ptr, ptr %17, align 8, !tbaa !55
  tail call void %16(ptr noundef %18, ptr noundef %1, ptr noundef %2, i64 noundef 8) #16
  %19 = load i32, ptr %1, align 4, !tbaa !48
  %20 = getelementptr inbounds nuw i8, ptr %1, i64 4
  %21 = load i32, ptr %20, align 4, !tbaa !50
  %22 = add nsw i32 %21, %19
  store i32 %22, ptr %1, align 4, !tbaa !48
  %23 = load i32, ptr %11, align 4, !tbaa !10
  %24 = sext i32 %23 to i64
  %25 = sext i32 %22 to i64
  %26 = mul nsw i64 %24, %25
  %27 = add nsw i64 %26, 1073741824
  %28 = lshr i64 %27, 31
  %29 = trunc i64 %28 to i32
  store i32 %29, ptr %1, align 4, !tbaa !48
  %30 = getelementptr inbounds nuw i8, ptr %11, i64 4
  %31 = load i32, ptr %30, align 4, !tbaa !10
  %32 = getelementptr inbounds nuw i8, ptr %11, i64 8
  %33 = load i32, ptr %32, align 4, !tbaa !10
  %34 = sext i32 %33 to i64
  %35 = sext i32 %7 to i64
  %36 = getelementptr inbounds %struct.AVComplexInt32, ptr %1, i64 %35
  %37 = load i32, ptr %36, align 4, !tbaa !48
  %38 = sext i32 %37 to i64
  %39 = mul nsw i64 %38, %34
  %40 = add nsw i64 %39, 1073741824
  %41 = lshr i64 %40, 31
  %42 = trunc i64 %41 to i32
  store i32 %42, ptr %36, align 4, !tbaa !48
  %43 = getelementptr inbounds nuw i8, ptr %11, i64 12
  %44 = load i32, ptr %43, align 4, !tbaa !10
  %45 = sext i32 %44 to i64
  %46 = getelementptr inbounds nuw i8, ptr %36, i64 4
  %47 = load i32, ptr %46, align 4, !tbaa !50
  %48 = sext i32 %47 to i64
  %49 = mul nsw i64 %48, %45
  %50 = add nsw i64 %49, 1073741824
  %51 = lshr i64 %50, 31
  %52 = trunc i64 %51 to i32
  store i32 %52, ptr %46, align 4, !tbaa !50
  %.not76 = icmp slt i32 %7, 1
  br i1 %.not76, label %.preheader.._crit_edge_crit_edge, label %.lr.ph

.lr.ph:                                           ; preds = %4
  %53 = getelementptr inbounds nuw i8, ptr %11, i64 16
  %54 = getelementptr inbounds nuw i8, ptr %11, i64 24
  %55 = getelementptr inbounds nuw i8, ptr %11, i64 28
  %56 = sext i32 %6 to i64
  %57 = zext nneg i32 %5 to i64
  %58 = add nuw nsw i32 %7, 1
  %wide.trip.count = zext nneg i32 %58 to i64
  br label %61

.preheader:                                       ; preds = %61
  %.not = icmp eq i32 %7, 1
  br i1 %.not, label %.preheader.._crit_edge_crit_edge, label %.lr.ph79.preheader

.preheader.._crit_edge_crit_edge:                 ; preds = %4, %.preheader
  %.pre = sext i32 %6 to i64
  br label %._crit_edge

.lr.ph79.preheader:                               ; preds = %.preheader
  %59 = zext nneg i32 %5 to i64
  %60 = sext i32 %6 to i64
  %wide.trip.count85 = zext nneg i32 %7 to i64
  br label %.lr.ph79

61:                                               ; preds = %.lr.ph, %61
  %indvars.iv = phi i64 [ 1, %.lr.ph ], [ %indvars.iv.next, %61 ]
  %62 = getelementptr inbounds nuw %struct.AVComplexInt32, ptr %1, i64 %indvars.iv
  %.sroa.05.0.copyload = load i32, ptr %62, align 4, !tbaa !10
  %.sroa.57.0..sroa_idx = getelementptr inbounds nuw i8, ptr %62, i64 4
  %.sroa.57.0.copyload = load i32, ptr %.sroa.57.0..sroa_idx, align 4, !tbaa !10
  %63 = sub nsw i64 %56, %indvars.iv
  %64 = getelementptr inbounds %struct.AVComplexInt32, ptr %1, i64 %63
  %.sroa.0.0.copyload = load i32, ptr %64, align 4, !tbaa !10
  %.sroa.5.0..sroa_idx = getelementptr inbounds nuw i8, ptr %64, i64 4
  %.sroa.5.0.copyload = load i32, ptr %.sroa.5.0..sroa_idx, align 4, !tbaa !10
  %65 = load i32, ptr %53, align 4, !tbaa !10
  %66 = sext i32 %65 to i64
  %67 = add nsw i32 %.sroa.0.0.copyload, %.sroa.05.0.copyload
  %68 = sext i32 %67 to i64
  %69 = mul nsw i64 %66, %68
  %70 = add nsw i64 %69, 1073741824
  %71 = lshr i64 %70, 31
  %72 = trunc i64 %71 to i32
  %73 = load i32, ptr %54, align 4, !tbaa !10
  %74 = sext i32 %73 to i64
  %75 = add nsw i32 %.sroa.5.0.copyload, %.sroa.57.0.copyload
  %76 = sext i32 %75 to i64
  %77 = mul nsw i64 %74, %76
  %78 = add nsw i64 %77, 1073741824
  %79 = lshr i64 %78, 31
  %80 = trunc i64 %79 to i32
  %81 = load i32, ptr %55, align 4, !tbaa !10
  %82 = sext i32 %81 to i64
  %83 = sub nsw i32 %.sroa.05.0.copyload, %.sroa.0.0.copyload
  %84 = sext i32 %83 to i64
  %85 = mul nsw i64 %82, %84
  %86 = add nsw i64 %85, 1073741824
  %87 = lshr i64 %86, 31
  %88 = trunc i64 %87 to i32
  %89 = getelementptr inbounds nuw i32, ptr %12, i64 %indvars.iv
  %90 = load i32, ptr %89, align 4, !tbaa !10
  %91 = mul nsw i32 %90, %80
  %92 = getelementptr inbounds nuw i32, ptr %14, i64 %indvars.iv
  %93 = load i32, ptr %92, align 4, !tbaa !10
  %94 = mul nsw i32 %93, %88
  %95 = sub nsw i32 %91, %94
  %96 = add nsw i32 %95, %72
  %97 = getelementptr inbounds nuw i32, ptr %1, i64 %indvars.iv
  store i32 %96, ptr %97, align 4, !tbaa !10
  %98 = sub nsw i32 %72, %95
  %99 = sub nsw i64 %57, %indvars.iv
  %100 = getelementptr inbounds i32, ptr %1, i64 %99
  store i32 %98, ptr %100, align 4, !tbaa !10
  %indvars.iv.next = add nuw nsw i64 %indvars.iv, 1
  %exitcond.not = icmp eq i64 %indvars.iv.next, %wide.trip.count
  br i1 %exitcond.not, label %.preheader, label %61, !llvm.loop !140

._crit_edge:                                      ; preds = %.lr.ph79, %.preheader.._crit_edge_crit_edge
  %.pre-phi = phi i64 [ %.pre, %.preheader.._crit_edge_crit_edge ], [ %60, %.lr.ph79 ]
  %101 = sext i32 %31 to i64
  %102 = sub nsw i32 %19, %21
  %103 = sext i32 %102 to i64
  %104 = mul nsw i64 %101, %103
  %105 = add nsw i64 %104, 1073741824
  %106 = lshr i64 %105, 31
  %107 = trunc i64 %106 to i32
  %108 = getelementptr inbounds i32, ptr %1, i64 %.pre-phi
  store i32 %107, ptr %108, align 4, !tbaa !10
  ret void

.lr.ph79:                                         ; preds = %.lr.ph79.preheader, %.lr.ph79
  %indvars.iv82 = phi i64 [ 1, %.lr.ph79.preheader ], [ %indvars.iv.next83, %.lr.ph79 ]
  %109 = sub nsw i64 %59, %indvars.iv82
  %110 = getelementptr inbounds i32, ptr %1, i64 %109
  %111 = load i32, ptr %110, align 4, !tbaa !10
  %112 = sub nsw i64 %60, %indvars.iv82
  %113 = getelementptr inbounds i32, ptr %1, i64 %112
  store i32 %111, ptr %113, align 4, !tbaa !10
  %indvars.iv.next83 = add nuw nsw i64 %indvars.iv82, 1
  %exitcond86.not = icmp eq i64 %indvars.iv.next83, %wide.trip.count85
  br i1 %exitcond86.not, label %._crit_edge, label %.lr.ph79, !llvm.loop !141
}